; Function Attrs: mustprogress nounwind uwtable
define void @_ZN3gmx26DomainDecompositionBuilderD2Ev(ptr noundef nonnull align 8 captures(none) dereferenceable(8) %0) unnamed_addr #5 align 2 personality ptr @__gxx_personality_v0 {
  %2 = load ptr, ptr %0, align 8, !tbaa !864
  %.not.i = icmp eq ptr %2, null
  br i1 %.not.i, label %_ZNSt10unique_ptrIN3gmx26DomainDecompositionBuilder4ImplESt14default_deleteIS2_EED2Ev.exit, label %_ZNKSt14default_deleteIN3gmx26DomainDecompositionBuilder4ImplEEclEPS2_.exit.i

_ZNKSt14default_deleteIN3gmx26DomainDecompositionBuilder4ImplEEclEPS2_.exit.i: ; preds = %1
  tail call void @_ZN3gmx26DomainDecompositionBuilder4ImplD2Ev(ptr noundef nonnull align 8 dereferenceable(816) %2) #27
  tail call void @_ZdlPvm(ptr noundef nonnull %2, i64 noundef 816) #29
  br label %_ZNSt10unique_ptrIN3gmx26DomainDecompositionBuilder4ImplESt14default_deleteIS2_EED2Ev.exit

_ZNSt10unique_ptrIN3gmx26DomainDecompositionBuilder4ImplESt14default_deleteIS2_EED2Ev.exit: ; preds = %1, %_ZNKSt14default_deleteIN3gmx26DomainDecompositionBuilder4ImplEEclEPS2_.exit.i
  store ptr null, ptr %0, align 8, !tbaa !864
  ret void
}